target datalayout = "e-m:e-p270:32:32-p271:32:32-p272:64:64-i64:64-i128:128-f80:128-n8:16:32:64-S128"
target triple = "x86_64-pc-linux-gnu"

%struct.PaUtilBufferProcessor = type { i64, i64, i32, i32, i32, i32, i64, i32, i32, i32, i32, ptr, ptr, i32, i32, i32, i32, ptr, ptr, i64, i64, ptr, ptr, i64, ptr, ptr, i64, ptr, i64, i32, [2 x i64], [2 x ptr], i32, [2 x i64], [2 x ptr], %struct.PaUtilTriangularDitherGenerator, double, ptr, ptr }
%struct.PaUtilTriangularDitherGenerator = type { i32, i32, i32 }
%struct.PaUtilChannelDescriptor = type { ptr, i32 }

; Function Attrs: nounwind uwtable
define i64 @PaUtil_CopyInput(ptr noundef %0, ptr noundef %1, i64 noundef %2) #0 {
  %4 = alloca ptr, align 8
  %5 = alloca ptr, align 8
  %6 = alloca i64, align 8
  %7 = alloca ptr, align 8
  %8 = alloca i32, align 4
  %9 = alloca ptr, align 8
  %10 = alloca ptr, align 8
  %11 = alloca i32, align 4
  %12 = alloca i32, align 4
  %13 = alloca i32, align 4
  store ptr %0, ptr %4, align 8
  store ptr %1, ptr %5, align 8
  store i64 %2, ptr %6, align 8
  %14 = load ptr, ptr %4, align 8
  %15 = getelementptr inbounds nuw %struct.PaUtilBufferProcessor, ptr %14, i32 0, i32 31
  %16 = getelementptr inbounds [2 x ptr], ptr %15, i64 0, i64 0
  %17 = load ptr, ptr %16, align 8
  store ptr %17, ptr %7, align 8
  %18 = load ptr, ptr %4, align 8
  %19 = getelementptr inbounds nuw %struct.PaUtilBufferProcessor, ptr %18, i32 0, i32 30
  %20 = getelementptr inbounds [2 x i64], ptr %19, i64 0, i64 0
  %21 = load i64, ptr %20, align 8
  %22 = load i64, ptr %6, align 8
  %23 = icmp ult i64 %21, %22
  br i1 %23, label %24, label %29

24:                                               ; preds = %3
  %25 = load ptr, ptr %4, align 8
  %26 = getelementptr inbounds nuw %struct.PaUtilBufferProcessor, ptr %25, i32 0, i32 30
  %27 = getelementptr inbounds [2 x i64], ptr %26, i64 0, i64 0
  %28 = load i64, ptr %27, align 8
  br label %31

29:                                               ; preds = %3
  %30 = load i64, ptr %6, align 8
  br label %31

31:                                               ; preds = %29, %24
  %32 = phi i64 [ %28, %24 ], [ %30, %29 ]
  %33 = trunc i64 %32 to i32
  store i32 %33, ptr %8, align 4
  %34 = load ptr, ptr %4, align 8
  %35 = getelementptr inbounds nuw %struct.PaUtilBufferProcessor, ptr %34, i32 0, i32 10
  %36 = load i32, ptr %35, align 4
  %37 = icmp ne i32 %36, 0
  br i1 %37, label %38, label %121

38:                                               ; preds = %31
  %39 = load ptr, ptr %5, align 8
  %40 = load ptr, ptr %39, align 8
  store ptr %40, ptr %9, align 8
  %41 = load ptr, ptr %4, align 8
  %42 = getelementptr inbounds nuw %struct.PaUtilBufferProcessor, ptr %41, i32 0, i32 7
  %43 = load i32, ptr %42, align 8
  store i32 %43, ptr %11, align 4
  %44 = load ptr, ptr %4, align 8
  %45 = getelementptr inbounds nuw %struct.PaUtilBufferProcessor, ptr %44, i32 0, i32 9
  %46 = load i32, ptr %45, align 8
  store i32 %46, ptr %12, align 4
  store i32 0, ptr %13, align 4
  br label %47

47:                                               ; preds = %103, %38
  %48 = load i32, ptr %13, align 4
  %49 = load ptr, ptr %4, align 8
  %50 = getelementptr inbounds nuw %struct.PaUtilBufferProcessor, ptr %49, i32 0, i32 7
  %51 = load i32, ptr %50, align 8
  %52 = icmp ult i32 %48, %51
  br i1 %52, label %53, label %106

53:                                               ; preds = %47
  %54 = load ptr, ptr %4, align 8
  %55 = getelementptr inbounds nuw %struct.PaUtilBufferProcessor, ptr %54, i32 0, i32 11
  %56 = load ptr, ptr %55, align 8
  %57 = load ptr, ptr %9, align 8
  %58 = load i32, ptr %11, align 4
  %59 = load ptr, ptr %7, align 8
  %60 = load i32, ptr %13, align 4
  %61 = zext i32 %60 to i64
  %62 = getelementptr inbounds %struct.PaUtilChannelDescriptor, ptr %59, i64 %61
  %63 = getelementptr inbounds nuw %struct.PaUtilChannelDescriptor, ptr %62, i32 0, i32 0
  %64 = load ptr, ptr %63, align 8
  %65 = load ptr, ptr %7, align 8
  %66 = load i32, ptr %13, align 4
  %67 = zext i32 %66 to i64
  %68 = getelementptr inbounds %struct.PaUtilChannelDescriptor, ptr %65, i64 %67
  %69 = getelementptr inbounds nuw %struct.PaUtilChannelDescriptor, ptr %68, i32 0, i32 1
  %70 = load i32, ptr %69, align 8
  %71 = load i32, ptr %8, align 4
  %72 = load ptr, ptr %4, align 8
  %73 = getelementptr inbounds nuw %struct.PaUtilBufferProcessor, ptr %72, i32 0, i32 35
  call void %56(ptr noundef %57, i32 noundef %58, ptr noundef %64, i32 noundef %70, i32 noundef %71, ptr noundef %73)
  %74 = load i32, ptr %12, align 4
  %75 = load ptr, ptr %9, align 8
  %76 = zext i32 %74 to i64
  %77 = getelementptr inbounds i8, ptr %75, i64 %76
  store ptr %77, ptr %9, align 8
  %78 = load ptr, ptr %7, align 8
  %79 = load i32, ptr %13, align 4
  %80 = zext i32 %79 to i64
  %81 = getelementptr inbounds %struct.PaUtilChannelDescriptor, ptr %78, i64 %80
  %82 = getelementptr inbounds nuw %struct.PaUtilChannelDescriptor, ptr %81, i32 0, i32 0
  %83 = load ptr, ptr %82, align 8
  %84 = load i32, ptr %8, align 4
  %85 = load ptr, ptr %7, align 8
  %86 = load i32, ptr %13, align 4
  %87 = zext i32 %86 to i64
  %88 = getelementptr inbounds %struct.PaUtilChannelDescriptor, ptr %85, i64 %87
  %89 = getelementptr inbounds nuw %struct.PaUtilChannelDescriptor, ptr %88, i32 0, i32 1
  %90 = load i32, ptr %89, align 8
  %91 = mul i32 %84, %90
  %92 = load ptr, ptr %4, align 8
  %93 = getelementptr inbounds nuw %struct.PaUtilBufferProcessor, ptr %92, i32 0, i32 8
  %94 = load i32, ptr %93, align 4
  %95 = mul i32 %91, %94
  %96 = zext i32 %95 to i64
  %97 = getelementptr inbounds i8, ptr %83, i64 %96
  %98 = load ptr, ptr %7, align 8
  %99 = load i32, ptr %13, align 4
  %100 = zext i32 %99 to i64
  %101 = getelementptr inbounds %struct.PaUtilChannelDescriptor, ptr %98, i64 %100
  %102 = getelementptr inbounds nuw %struct.PaUtilChannelDescriptor, ptr %101, i32 0, i32 0
  store ptr %97, ptr %102, align 8
  br label %103

103:                                              ; preds = %53
  %104 = load i32, ptr %13, align 4
  %105 = add i32 %104, 1
  store i32 %105, ptr %13, align 4
  br label %47, !llvm.loop !36

106:                                              ; preds = %47
  %107 = load ptr, ptr %5, align 8
  %108 = load ptr, ptr %107, align 8
  %109 = load i32, ptr %8, align 4
  %110 = load ptr, ptr %4, align 8
  %111 = getelementptr inbounds nuw %struct.PaUtilBufferProcessor, ptr %110, i32 0, i32 7
  %112 = load i32, ptr %111, align 8
  %113 = mul i32 %109, %112
  %114 = load ptr, ptr %4, align 8
  %115 = getelementptr inbounds nuw %struct.PaUtilBufferProcessor, ptr %114, i32 0, i32 9
  %116 = load i32, ptr %115, align 8
  %117 = mul i32 %113, %116
  %118 = zext i32 %117 to i64
  %119 = getelementptr inbounds i8, ptr %108, i64 %118
  %120 = load ptr, ptr %5, align 8
  store ptr %119, ptr %120, align 8
  br label %198

121:                                              ; preds = %31
  %122 = load ptr, ptr %5, align 8
  %123 = load ptr, ptr %122, align 8
  store ptr %123, ptr %10, align 8
  store i32 1, ptr %11, align 4
  store i32 0, ptr %13, align 4
  br label %124

124:                                              ; preds = %194, %121
  %125 = load i32, ptr %13, align 4
  %126 = load ptr, ptr %4, align 8
  %127 = getelementptr inbounds nuw %struct.PaUtilBufferProcessor, ptr %126, i32 0, i32 7
  %128 = load i32, ptr %127, align 8
  %129 = icmp ult i32 %125, %128
  br i1 %129, label %130, label %197

130:                                              ; preds = %124
  %131 = load ptr, ptr %10, align 8
  %132 = load i32, ptr %13, align 4
  %133 = zext i32 %132 to i64
  %134 = getelementptr inbounds ptr, ptr %131, i64 %133
  %135 = load ptr, ptr %134, align 8
  store ptr %135, ptr %9, align 8
  %136 = load ptr, ptr %4, align 8
  %137 = getelementptr inbounds nuw %struct.PaUtilBufferProcessor, ptr %136, i32 0, i32 11
  %138 = load ptr, ptr %137, align 8
  %139 = load ptr, ptr %9, align 8
  %140 = load i32, ptr %11, align 4
  %141 = load ptr, ptr %7, align 8
  %142 = load i32, ptr %13, align 4
  %143 = zext i32 %142 to i64
  %144 = getelementptr inbounds %struct.PaUtilChannelDescriptor, ptr %141, i64 %143
  %145 = getelementptr inbounds nuw %struct.PaUtilChannelDescriptor, ptr %144, i32 0, i32 0
  %146 = load ptr, ptr %145, align 8
  %147 = load ptr, ptr %7, align 8
  %148 = load i32, ptr %13, align 4
  %149 = zext i32 %148 to i64
  %150 = getelementptr inbounds %struct.PaUtilChannelDescriptor, ptr %147, i64 %149
  %151 = getelementptr inbounds nuw %struct.PaUtilChannelDescriptor, ptr %150, i32 0, i32 1
  %152 = load i32, ptr %151, align 8
  %153 = load i32, ptr %8, align 4
  %154 = load ptr, ptr %4, align 8
  %155 = getelementptr inbounds nuw %struct.PaUtilBufferProcessor, ptr %154, i32 0, i32 35
  call void %138(ptr noundef %139, i32 noundef %140, ptr noundef %146, i32 noundef %152, i32 noundef %153, ptr noundef %155)
  %156 = load ptr, ptr %4, align 8
  %157 = getelementptr inbounds nuw %struct.PaUtilBufferProcessor, ptr %156, i32 0, i32 9
  %158 = load i32, ptr %157, align 8
  %159 = load i32, ptr %8, align 4
  %160 = mul i32 %158, %159
  %161 = load ptr, ptr %9, align 8
  %162 = zext i32 %160 to i64
  %163 = getelementptr inbounds i8, ptr %161, i64 %162
  store ptr %163, ptr %9, align 8
  %164 = load ptr, ptr %9, align 8
  %165 = load ptr, ptr %10, align 8
  %166 = load i32, ptr %13, align 4
  %167 = zext i32 %166 to i64
  %168 = getelementptr inbounds ptr, ptr %165, i64 %167
  store ptr %164, ptr %168, align 8
  %169 = load ptr, ptr %7, align 8
  %170 = load i32, ptr %13, align 4
  %171 = zext i32 %170 to i64
  %172 = getelementptr inbounds %struct.PaUtilChannelDescriptor, ptr %169, i64 %171
  %173 = getelementptr inbounds nuw %struct.PaUtilChannelDescriptor, ptr %172, i32 0, i32 0
  %174 = load ptr, ptr %173, align 8
  %175 = load i32, ptr %8, align 4
  %176 = load ptr, ptr %7, align 8
  %177 = load i32, ptr %13, align 4
  %178 = zext i32 %177 to i64
  %179 = getelementptr inbounds %struct.PaUtilChannelDescriptor, ptr %176, i64 %178
  %180 = getelementptr inbounds nuw %struct.PaUtilChannelDescriptor, ptr %179, i32 0, i32 1
  %181 = load i32, ptr %180, align 8
  %182 = mul i32 %175, %181
  %183 = load ptr, ptr %4, align 8
  %184 = getelementptr inbounds nuw %struct.PaUtilBufferProcessor, ptr %183, i32 0, i32 8
  %185 = load i32, ptr %184, align 4
  %186 = mul i32 %182, %185
  %187 = zext i32 %186 to i64
  %188 = getelementptr inbounds i8, ptr %174, i64 %187
  %189 = load ptr, ptr %7, align 8
  %190 = load i32, ptr %13, align 4
  %191 = zext i32 %190 to i64
  %192 = getelementptr inbounds %struct.PaUtilChannelDescriptor, ptr %189, i64 %191
  %193 = getelementptr inbounds nuw %struct.PaUtilChannelDescriptor, ptr %192, i32 0, i32 0
  store ptr %188, ptr %193, align 8
  br label %194

194:                                              ; preds = %130
  %195 = load i32, ptr %13, align 4
  %196 = add i32 %195, 1
  store i32 %196, ptr %13, align 4
  br label %124, !llvm.loop !37

197:                                              ; preds = %124
  br label %198

198:                                              ; preds = %197, %106
  %199 = load i32, ptr %8, align 4
  %200 = zext i32 %199 to i64
  %201 = load ptr, ptr %4, align 8
  %202 = getelementptr inbounds nuw %struct.PaUtilBufferProcessor, ptr %201, i32 0, i32 30
  %203 = getelementptr inbounds [2 x i64], ptr %202, i64 0, i64 0
  %204 = load i64, ptr %203, align 8
  %205 = sub i64 %204, %200
  store i64 %205, ptr %203, align 8
  %206 = load i32, ptr %8, align 4
  %207 = zext i32 %206 to i64
  ret i64 %207
}