; Function Attrs: nounwind uwtable
define range(i64 0, 4294967296) i64 @PaUtil_CopyInput(ptr noundef %0, ptr nocapture noundef %1, i64 noundef %2) local_unnamed_addr #0 {
  %4 = getelementptr inbounds nuw i8, ptr %0, i64 208
  %5 = load ptr, ptr %4, align 8
  %6 = getelementptr inbounds nuw i8, ptr %0, i64 192
  %7 = load i64, ptr %6, align 8
  %. = tail call i64 @llvm.umin.i64(i64 %7, i64 %2)
  %8 = trunc i64 %. to i32
  %9 = getelementptr inbounds nuw i8, ptr %0, i64 52
  %10 = load i32, ptr %9, align 4
  %.not = icmp eq i32 %10, 0
  br i1 %.not, label %44, label %11

11:                                               ; preds = %3
  %12 = getelementptr inbounds nuw i8, ptr %0, i64 40
  %13 = load i32, ptr %12, align 8
  %14 = getelementptr inbounds nuw i8, ptr %0, i64 48
  %.not76 = icmp eq i32 %13, 0
  br i1 %.not76, label %._crit_edge, label %.lr.ph

.lr.ph:                                           ; preds = %11
  %15 = load i32, ptr %14, align 8
  %16 = load ptr, ptr %1, align 8
  %17 = getelementptr inbounds nuw i8, ptr %0, i64 56
  %18 = getelementptr inbounds nuw i8, ptr %0, i64 264
  %19 = zext i32 %15 to i64
  %20 = getelementptr inbounds nuw i8, ptr %0, i64 44
  br label %21

21:                                               ; preds = %.lr.ph, %21
  %indvars.iv = phi i64 [ 0, %.lr.ph ], [ %indvars.iv.next, %21 ]
  %.06771 = phi ptr [ %16, %.lr.ph ], [ %27, %21 ]
  %22 = load ptr, ptr %17, align 8
  %23 = getelementptr inbounds %struct.PaUtilChannelDescriptor, ptr %5, i64 %indvars.iv
  %24 = load ptr, ptr %23, align 8
  %25 = getelementptr inbounds nuw i8, ptr %23, i64 8
  %26 = load i32, ptr %25, align 8
  tail call void %22(ptr noundef %.06771, i32 noundef %13, ptr noundef %24, i32 noundef %26, i32 noundef %8, ptr noundef nonnull %18) #11
  %27 = getelementptr inbounds i8, ptr %.06771, i64 %19
  %28 = load ptr, ptr %23, align 8
  %29 = load i32, ptr %25, align 8
  %30 = mul i32 %29, %8
  %31 = load i32, ptr %20, align 4
  %32 = mul i32 %30, %31
  %33 = zext i32 %32 to i64
  %34 = getelementptr inbounds i8, ptr %28, i64 %33
  store ptr %34, ptr %23, align 8
  %indvars.iv.next = add nuw nsw i64 %indvars.iv, 1
  %35 = load i32, ptr %12, align 8
  %36 = zext i32 %35 to i64
  %37 = icmp ult i64 %indvars.iv.next, %36
  br i1 %37, label %21, label %._crit_edge, !llvm.loop !36

._crit_edge:                                      ; preds = %21, %11
  %.lcssa = phi i32 [ 0, %11 ], [ %35, %21 ]
  %38 = load ptr, ptr %1, align 8
  %39 = mul i32 %.lcssa, %8
  %40 = load i32, ptr %14, align 8
  %41 = mul i32 %39, %40
  %42 = zext i32 %41 to i64
  %43 = getelementptr inbounds i8, ptr %38, i64 %42
  store ptr %43, ptr %1, align 8
  br label %.loopexit

44:                                               ; preds = %3
  %45 = load ptr, ptr %1, align 8
  %46 = getelementptr inbounds nuw i8, ptr %0, i64 40
  %47 = load i32, ptr %46, align 8
  %.not77 = icmp eq i32 %47, 0
  br i1 %.not77, label %.loopexit, label %.lr.ph75

.lr.ph75:                                         ; preds = %44
  %48 = getelementptr inbounds nuw i8, ptr %0, i64 56
  %49 = getelementptr inbounds nuw i8, ptr %0, i64 264
  %50 = getelementptr inbounds nuw i8, ptr %0, i64 48
  %51 = getelementptr inbounds nuw i8, ptr %0, i64 44
  br label %52

52:                                               ; preds = %.lr.ph75, %52
  %indvars.iv80 = phi i64 [ 0, %.lr.ph75 ], [ %indvars.iv.next81, %52 ]
  %53 = getelementptr inbounds ptr, ptr %45, i64 %indvars.iv80
  %54 = load ptr, ptr %53, align 8
  %55 = load ptr, ptr %48, align 8
  %56 = getelementptr inbounds %struct.PaUtilChannelDescriptor, ptr %5, i64 %indvars.iv80
  %57 = load ptr, ptr %56, align 8
  %58 = getelementptr inbounds nuw i8, ptr %56, i64 8
  %59 = load i32, ptr %58, align 8
  tail call void %55(ptr noundef %54, i32 noundef 1, ptr noundef %57, i32 noundef %59, i32 noundef %8, ptr noundef nonnull %49) #11
  %60 = load i32, ptr %50, align 8
  %61 = mul i32 %60, %8
  %62 = zext i32 %61 to i64
  %63 = getelementptr inbounds i8, ptr %54, i64 %62
  store ptr %63, ptr %53, align 8
  %64 = load ptr, ptr %56, align 8
  %65 = load i32, ptr %58, align 8
  %66 = mul i32 %65, %8
  %67 = load i32, ptr %51, align 4
  %68 = mul i32 %66, %67
  %69 = zext i32 %68 to i64
  %70 = getelementptr inbounds i8, ptr %64, i64 %69
  store ptr %70, ptr %56, align 8
  %indvars.iv.next81 = add nuw nsw i64 %indvars.iv80, 1
  %71 = load i32, ptr %46, align 8
  %72 = zext i32 %71 to i64
  %73 = icmp ult i64 %indvars.iv.next81, %72
  br i1 %73, label %52, label %.loopexit, !llvm.loop !37

.loopexit:                                        ; preds = %52, %44, %._crit_edge
  %74 = and i64 %., 4294967295
  %75 = load i64, ptr %6, align 8
  %76 = sub i64 %75, %74
  store i64 %76, ptr %6, align 8
  ret i64 %74
}